

Microchip Technology PIC18 LITE Macro Assembler V1.20 build 52243 
                                                                                               Sun Sep 29 15:57:54 2013

Microchip Technology Omniscient Code Generator (Lite mode) build 52243
     1                           	processor	18F47J53
     2                           	fnconf	rparam,??,?,0
     3                           	opt	pw 120
     4                           	opt	lm
     5                           	psect	intcodelo,global,reloc=2,class=CODE,delta=1
     6                           	psect	cinit,global,reloc=2,class=CODE,delta=1
     7                           	psect	cstackCOMRAM,global,class=COMRAM,space=1,delta=1
     8                           	psect	text0,global,reloc=2,class=CODE,delta=1
     9                           	psect	text1,global,reloc=2,class=CODE,delta=1
    10                           	psect	text2,global,reloc=2,class=CODE,delta=1
    11                           	psect	intcode,global,reloc=2,class=CODE,delta=1
    12                           	psect	intcode_body,global,reloc=2,class=CODE,delta=1
    13                           	psect	intsave_regs,global,class=BIGRAM,space=1,delta=1
    14                           	psect	rparam,global,class=COMRAM,space=1,delta=1
    15  0000                     _INTCONbits	set	4082
    16  0000                     _IPR1bits	set	3999
    17  0000                     _LATA	set	3977
    18  0000                     _LATB	set	3978
    19  0000                     _LATC	set	3979
    20  0000                     _LATD	set	3980
    21  0000                     _LATE	set	3981
    22  0000                     _OSCTUNEbits	set	3995
    23  0000                     _PIE1bits	set	3997
    24  0000                     _PORTDbits	set	3971
    25  0000                     _PR2	set	4043
    26  0000                     _RCONbits	set	4048
    27  0000                     _T2CONbits	set	4042
    28  0000                     _TRISA	set	3986
    29  0000                     _TRISC	set	3988
    30  0000                     _TRISD	set	3989
    31  0000                     _TRISE	set	3990
    32                           
    33 ;; *************** function _low_isr *****************
    34 ;; Defined at:
    35 ;;		line 75 in file "interrupts.c"
    36 ;; Parameters:    Size  Location     Type
    37 ;;		None
    38 ;; Auto vars:     Size  Location     Type
    39 ;;		None
    40 ;; Return value:  Size  Location     Type
    41 ;;		None               void
    42 ;; Registers used:
    43 ;;		None
    44 ;; Tracked objects:
    45 ;;		On entry : 0/0
    46 ;;		On exit  : 0/0
    47 ;;		Unchanged: 0/0
    48 ;; Data sizes:     COMRAM   BANK0   BANK1   BANK2   BANK3   BANK4   BANK5   BANK6   BANK7   BANK8   BANK9  BANK10  BANK1
      +1  BANK12  BANK13  BANK14
    49 ;;      Params:         0       0       0       0       0       0       0       0       0       0       0       0       
      +0       0       0       0
    50 ;;      Locals:         0       0       0       0       0       0       0       0       0       0       0       0       
      +0       0       0       0
    51 ;;      Temps:         17       0       0       0       0       0       0       0       0       0       0       0       
      +0       0       0       0
    52 ;;      Totals:        17       0       0       0       0       0       0       0       0       0       0       0       
      +0       0       0       0
    53 ;;Total ram usage:       17 bytes
    54 ;; Hardware stack levels used:    1
    55 ;; Hardware stack levels required when called:    1
    56 ;; This function calls:
    57 ;;		Nothing
    58 ;; This function is called by:
    59 ;;		Interrupt level 1
    60 ;; This function uses a non-reentrant model
    61 ;;
    62                           
    63                           	psect	intcodelo
    64  001018                     __pintcodelo:
    65                           	opt stack 0
    66                           
    67                           ; #config settings
    68  001018                     _low_isr:
    69                           	opt stack 28
    70                           
    71                           ;incstack = 0
    72  001018  CFD8 F001          	movff	status,??_low_isr
    73  00101C  CFE8 F002          	movff	wreg,??_low_isr+1
    74  001020  CFE0 F003          	movff	bsr,??_low_isr+2
    75  001024  CFFA F004          	movff	pclath,??_low_isr+3
    76  001028  CFFB F005          	movff	pclatu,??_low_isr+4
    77  00102C  CFE9 F006          	movff	fsr0l,??_low_isr+5
    78  001030  CFEA F007          	movff	fsr0h,??_low_isr+6
    79  001034  CFE1 F008          	movff	fsr1l,??_low_isr+7
    80  001038  CFE2 F009          	movff	fsr1h,??_low_isr+8
    81  00103C  CFD9 F00A          	movff	fsr2l,??_low_isr+9
    82  001040  CFDA F00B          	movff	fsr2h,??_low_isr+10
    83  001044  CFF3 F00C          	movff	prodl,??_low_isr+11
    84  001048  CFF4 F00D          	movff	prodh,??_low_isr+12
    85  00104C  CFF6 F00E          	movff	tblptrl,??_low_isr+13
    86  001050  CFF7 F00F          	movff	tblptrh,??_low_isr+14
    87  001054  CFF8 F010          	movff	tblptru,??_low_isr+15
    88  001058  CFF5 F011          	movff	tablat,??_low_isr+16
    89  00105C  C011  FFF5         	movff	??_low_isr+16,tablat
    90  001060  C010  FFF8         	movff	??_low_isr+15,tblptru
    91  001064  C00F  FFF7         	movff	??_low_isr+14,tblptrh
    92  001068  C00E  FFF6         	movff	??_low_isr+13,tblptrl
    93  00106C  C00D  FFF4         	movff	??_low_isr+12,prodh
    94  001070  C00C  FFF3         	movff	??_low_isr+11,prodl
    95  001074  C00B  FFDA         	movff	??_low_isr+10,fsr2h
    96  001078  C00A  FFD9         	movff	??_low_isr+9,fsr2l
    97  00107C  C009  FFE2         	movff	??_low_isr+8,fsr1h
    98  001080  C008  FFE1         	movff	??_low_isr+7,fsr1l
    99  001084  C007  FFEA         	movff	??_low_isr+6,fsr0h
   100  001088  C006  FFE9         	movff	??_low_isr+5,fsr0l
   101  00108C  C005  FFFB         	movff	??_low_isr+4,pclatu
   102  001090  C004  FFFA         	movff	??_low_isr+3,pclath
   103  001094  C003  FFE0         	movff	??_low_isr+2,bsr
   104  001098  C002  FFE8         	movff	??_low_isr+1,wreg
   105  00109C  C001  FFD8         	movff	??_low_isr,status
   106  0010A0  0010               	retfie	
   107  0010A2                     __end_of_low_isr:
   108                           	opt stack 0
   109                           pclatu	equ	0xFFB
   110                           pclath	equ	0xFFA
   111                           tblptru	equ	0xFF8
   112                           tblptrh	equ	0xFF7
   113                           tblptrl	equ	0xFF6
   114                           tablat	equ	0xFF5
   115                           prodh	equ	0xFF4
   116                           prodl	equ	0xFF3
   117                           fsr0h	equ	0xFEA
   118                           fsr0l	equ	0xFE9
   119                           wreg	equ	0xFE8
   120                           fsr1h	equ	0xFE2
   121                           fsr1l	equ	0xFE1
   122                           bsr	equ	0xFE0
   123                           fsr2h	equ	0xFDA
   124                           fsr2l	equ	0xFD9
   125                           status	equ	0xFD8
   126                           
   127                           	psect	cinit
   128  0011B2                     __pcinit:
   129                           	opt stack 0
   130  0011B2                     start_initialization:
   131                           	opt stack 0
   132  0011B2                     __initialization:
   133                           	opt stack 0
   134  0011B2                     end_of_initialization:
   135                           	opt stack 0
   136  0011B2                     __end_of__initialization:
   137                           	opt stack 0
   138  0011B2  0100               	movlb	0
   139  0011B4  EF86  F008         	goto	_main	;jump to C main() function
   140                           pclatu	equ	0xFFB
   141                           pclath	equ	0xFFA
   142                           tblptru	equ	0xFF8
   143                           tblptrh	equ	0xFF7
   144                           tblptrl	equ	0xFF6
   145                           tablat	equ	0xFF5
   146                           prodh	equ	0xFF4
   147                           prodl	equ	0xFF3
   148                           fsr0h	equ	0xFEA
   149                           fsr0l	equ	0xFE9
   150                           wreg	equ	0xFE8
   151                           fsr1h	equ	0xFE2
   152                           fsr1l	equ	0xFE1
   153                           bsr	equ	0xFE0
   154                           fsr2h	equ	0xFDA
   155                           fsr2l	equ	0xFD9
   156                           status	equ	0xFD8
   157                           
   158                           	psect	cstackCOMRAM
   159  000001                     __pcstackCOMRAM:
   160                           	opt stack 0
   161  000001                     ??_low_isr:
   162  000001                     
   163                           ; 0 bytes @ 0x0
   164  000001                     	ds	17
   165  000012                     ??_high_isr:
   166                           
   167                           ; 0 bytes @ 0x11
   168  000012                     	ds	14
   169  000020                     ??_ConfigureOscillator:
   170  000020                     
   171                           ; 0 bytes @ 0x1F
   172  000020                     	ds	1
   173  000021                     ??_main:
   174                           
   175                           ; 0 bytes @ 0x20
   176  000021                     	ds	1
   177  000022                     main@c:
   178                           	opt stack 0
   179                           
   180                           ; 1 bytes @ 0x21
   181  000022                     	ds	1
   182  000023                     main@timer_delay:
   183                           	opt stack 0
   184                           
   185                           ; 2 bytes @ 0x22
   186  000023                     	ds	2
   187                           pclatu	equ	0xFFB
   188                           pclath	equ	0xFFA
   189                           tblptru	equ	0xFF8
   190                           tblptrh	equ	0xFF7
   191                           tblptrl	equ	0xFF6
   192                           tablat	equ	0xFF5
   193                           prodh	equ	0xFF4
   194                           prodl	equ	0xFF3
   195                           fsr0h	equ	0xFEA
   196                           fsr0l	equ	0xFE9
   197                           wreg	equ	0xFE8
   198                           fsr1h	equ	0xFE2
   199                           fsr1l	equ	0xFE1
   200                           bsr	equ	0xFE0
   201                           fsr2h	equ	0xFDA
   202                           fsr2l	equ	0xFD9
   203                           status	equ	0xFD8
   204                           
   205 ;;
   206 ;;Main: autosize = 0, tempsize = 1, incstack = 0, save=0
   207 ;;
   208 ;; *************** function _main *****************
   209 ;; Defined at:
   210 ;;		line 39 in file "main.c"
   211 ;; Parameters:    Size  Location     Type
   212 ;;		None
   213 ;; Auto vars:     Size  Location     Type
   214 ;;  timer_delay     2   34[COMRAM] volatile unsigned short 
   215 ;;  c               1   33[COMRAM] unsigned char 
   216 ;; Return value:  Size  Location     Type
   217 ;;		None               void
   218 ;; Registers used:
   219 ;;		wreg, fsr0l, fsr0h, fsr1l, fsr1h, fsr1l, fsr1h, fsr2l, fsr2h, status,2, status,0, pclat, btemp, btemp+1, btemp+2, bt
      +emp+3, btemp+4, btemp+5, btemp+6, btemp+7, tosl, structret, tblptrl, tblptrh, tblptru, prodl, prodh, bsr, cstack
   220 ;; Tracked objects:
   221 ;;		On entry : 0/0
   222 ;;		On exit  : 0/0
   223 ;;		Unchanged: 0/0
   224 ;; Data sizes:     COMRAM   BANK0   BANK1   BANK2   BANK3   BANK4   BANK5   BANK6   BANK7   BANK8   BANK9  BANK10  BANK1
      +1  BANK12  BANK13  BANK14
   225 ;;      Params:         0       0       0       0       0       0       0       0       0       0       0       0       
      +0       0       0       0
   226 ;;      Locals:         3       0       0       0       0       0       0       0       0       0       0       0       
      +0       0       0       0
   227 ;;      Temps:          1       0       0       0       0       0       0       0       0       0       0       0       
      +0       0       0       0
   228 ;;      Totals:         4       0       0       0       0       0       0       0       0       0       0       0       
      +0       0       0       0
   229 ;;Total ram usage:        4 bytes
   230 ;; Hardware stack levels required when called:    3
   231 ;; This function calls:
   232 ;;		_ConfigureOscillator
   233 ;;		_InitApp
   234 ;; This function is called by:
   235 ;;		Startup code after reset
   236 ;; This function uses a non-reentrant model
   237 ;;
   238                           
   239                           	psect	text0
   240  00110C                     __ptext0:
   241                           	opt stack 0
   242  00110C                     _main:
   243                           	opt stack 28
   244                           
   245                           ;main.c: 40: char c = 0;
   246                           
   247                           ;incstack = 0
   248                           ;incstack = 0
   249  00110C  6E21               	movwf	??_main& (0+255),c
   250  00110E  0E00               	movlw	0
   251  001110  6E22               	movwf	main@c,c
   252  001112  5021               	movf	??_main& (0+255),w,c
   253                           
   254                           ;main.c: 41: volatile unsigned short timer_delay = 0;
   255  001114  0E00               	movlw	0
   256  001116  6E24               	movwf	main@timer_delay+1,c	;volatile
   257  001118  0E00               	movlw	0
   258  00111A  6E23               	movwf	main@timer_delay,c	;volatile
   259                           
   260                           ;main.c: 44: ConfigureOscillator();
   261  00111C  ECD0  F008         	call	_ConfigureOscillator	;wreg free
   262                           
   263                           ;main.c: 47: InitApp();
   264  001120  ECAF  F008         	call	_InitApp	;wreg free
   265  001124                     l650:
   266                           
   267                           ;main.c: 52: {
   268                           ;main.c: 53: if (!timer_delay)
   269  001124  5024               	movf	main@timer_delay+1,w,c	;volatile
   270  001126  1023               	iorwf	main@timer_delay,w,c	;volatile
   271  001128  A4D8               	btfss	status,2,c
   272  00112A  D7FC               	goto	l650
   273                           
   274                           ;main.c: 54: {
   275                           ;main.c: 55: timer_delay=200;
   276  00112C  0E00               	movlw	0
   277  00112E  6E24               	movwf	main@timer_delay+1,c	;volatile
   278  001130  0EC8               	movlw	200
   279  001132  6E23               	movwf	main@timer_delay,c	;volatile
   280                           
   281                           ;main.c: 56: if (PORTDbits.RD4 && PORTDbits.RD5)
   282  001134  B883               	btfsc	3971,4,c	;volatile
   283  001136  AA83               	btfss	3971,5,c	;volatile
   284  001138  D008               	goto	l17
   285                           
   286                           ;main.c: 57: {
   287                           ;main.c: 58: if (c & 0x02)
   288  00113A  A222               	btfss	main@c,1,c
   289  00113C  D003               	goto	l18
   290                           
   291                           ;main.c: 59: {
   292                           ;main.c: 60: PORTDbits.RD6 = 1;
   293  00113E  8C83               	bsf	3971,6,c	;volatile
   294                           
   295                           ;main.c: 61: PORTDbits.RD7 = 0;
   296  001140  9E83               	bcf	3971,7,c	;volatile
   297                           
   298                           ;main.c: 62: }
   299  001142  D7F0               	goto	l650
   300  001144                     l18:
   301                           
   302                           ;main.c: 63: else
   303                           ;main.c: 64: {
   304                           ;main.c: 65: PORTDbits.RD6 = 0;
   305  001144  9C83               	bcf	3971,6,c	;volatile
   306                           
   307                           ;main.c: 66: PORTDbits.RD7 = 1;
   308  001146  8E83               	bsf	3971,7,c	;volatile
   309  001148  D7ED               	goto	l650
   310  00114A                     l17:
   311                           
   312                           ;main.c: 69: else
   313                           ;main.c: 70: {
   314                           ;main.c: 71: PORTDbits.RD6 = 0;
   315  00114A  9C83               	bcf	3971,6,c	;volatile
   316                           
   317                           ;main.c: 72: PORTDbits.RD7 = 0;
   318  00114C  9E83               	bcf	3971,7,c	;volatile
   319                           
   320                           ;main.c: 73: if (!PORTDbits.RD4)
   321  00114E  B883               	btfsc	3971,4,c	;volatile
   322  001150  D7E9               	goto	l650
   323                           
   324                           ;main.c: 74: {
   325                           ;main.c: 75: if (c & 0x01) PORTDbits.RD6 = 1;
   326  001152  A022               	btfss	main@c,0,c
   327  001154  D002               	goto	l22
   328  001156  8C83               	bsf	3971,6,c	;volatile
   329  001158  D7E5               	goto	l650
   330  00115A                     l22:
   331                           
   332                           ;main.c: 76: else PORTDbits.RD6 = 0;
   333  00115A  9C83               	bcf	3971,6,c	;volatile
   334  00115C  D7E3               	goto	l650
   335  00115E                     __end_of_main:
   336                           	opt stack 0
   337                           pclatu	equ	0xFFB
   338                           pclath	equ	0xFFA
   339                           tblptru	equ	0xFF8
   340                           tblptrh	equ	0xFF7
   341                           tblptrl	equ	0xFF6
   342                           tablat	equ	0xFF5
   343                           prodh	equ	0xFF4
   344                           prodl	equ	0xFF3
   345                           fsr0h	equ	0xFEA
   346                           fsr0l	equ	0xFE9
   347                           wreg	equ	0xFE8
   348                           fsr1h	equ	0xFE2
   349                           fsr1l	equ	0xFE1
   350                           bsr	equ	0xFE0
   351                           fsr2h	equ	0xFDA
   352                           fsr2l	equ	0xFD9
   353                           status	equ	0xFD8
   354                           
   355 ;; *************** function _InitApp *****************
   356 ;; Defined at:
   357 ;;		line 29 in file "user.c"
   358 ;; Parameters:    Size  Location     Type
   359 ;;		None
   360 ;; Auto vars:     Size  Location     Type
   361 ;;		None
   362 ;; Return value:  Size  Location     Type
   363 ;;		None               void
   364 ;; Registers used:
   365 ;;		wreg, status,2
   366 ;; Tracked objects:
   367 ;;		On entry : 0/0
   368 ;;		On exit  : 0/0
   369 ;;		Unchanged: 0/0
   370 ;; Data sizes:     COMRAM   BANK0   BANK1   BANK2   BANK3   BANK4   BANK5   BANK6   BANK7   BANK8   BANK9  BANK10  BANK1
      +1  BANK12  BANK13  BANK14
   371 ;;      Params:         0       0       0       0       0       0       0       0       0       0       0       0       
      +0       0       0       0
   372 ;;      Locals:         0       0       0       0       0       0       0       0       0       0       0       0       
      +0       0       0       0
   373 ;;      Temps:          0       0       0       0       0       0       0       0       0       0       0       0       
      +0       0       0       0
   374 ;;      Totals:         0       0       0       0       0       0       0       0       0       0       0       0       
      +0       0       0       0
   375 ;;Total ram usage:        0 bytes
   376 ;; Hardware stack levels used:    1
   377 ;; Hardware stack levels required when called:    2
   378 ;; This function calls:
   379 ;;		Nothing
   380 ;; This function is called by:
   381 ;;		_main
   382 ;; This function uses a non-reentrant model
   383 ;;
   384                           
   385                           	psect	text1
   386  00115E                     __ptext1:
   387                           	opt stack 0
   388  00115E                     _InitApp:
   389                           	opt stack 28
   390                           
   391                           ;user.c: 33: LATA = 0;
   392                           
   393                           ;incstack = 0
   394                           ;incstack = 0
   395  00115E  0E00               	movlw	0
   396  001160  6E89               	movwf	3977,c	;volatile
   397                           
   398                           ;user.c: 34: TRISA = 0b11111111;
   399  001162  6892               	setf	3986,c	;volatile
   400                           
   401                           ;user.c: 36: LATB = 0;
   402  001164  0E00               	movlw	0
   403  001166  6E8A               	movwf	3978,c	;volatile
   404                           
   405                           ;user.c: 37: TRISA = 0b11111111;
   406  001168  6892               	setf	3986,c	;volatile
   407                           
   408                           ;user.c: 39: LATC = 0;
   409  00116A  0E00               	movlw	0
   410  00116C  6E8B               	movwf	3979,c	;volatile
   411                           
   412                           ;user.c: 40: TRISC = 0b11111111;
   413  00116E  6894               	setf	3988,c	;volatile
   414                           
   415                           ;user.c: 42: LATD = 0;
   416  001170  0E00               	movlw	0
   417  001172  6E8C               	movwf	3980,c	;volatile
   418                           
   419                           ;user.c: 43: TRISD = 0b00111111;
   420  001174  0E3F               	movlw	63
   421  001176  6E95               	movwf	3989,c	;volatile
   422                           
   423                           ;user.c: 45: LATE = 0;
   424  001178  0E00               	movlw	0
   425  00117A  6E8D               	movwf	3981,c	;volatile
   426                           
   427                           ;user.c: 46: TRISE = 0b11111111;
   428  00117C  6896               	setf	3990,c	;volatile
   429                           
   430                           ;user.c: 55: T2CONbits.T2CKPS = 2;
   431  00117E  50CA               	movf	4042,w,c	;volatile
   432  001180  0BFC               	andlw	-4
   433  001182  0902               	iorlw	2
   434  001184  6ECA               	movwf	4042,c	;volatile
   435                           
   436                           ;user.c: 56: T2CONbits.T2OUTPS = 4;
   437  001186  50CA               	movf	4042,w,c	;volatile
   438  001188  0B87               	andlw	-121
   439  00118A  0920               	iorlw	32
   440  00118C  6ECA               	movwf	4042,c	;volatile
   441                           
   442                           ;user.c: 57: PR2 = 150;
   443  00118E  0E96               	movlw	150
   444  001190  6ECB               	movwf	4043,c	;volatile
   445                           
   446                           ;user.c: 58: IPR1bits.TMR2IP = 0;
   447  001192  929F               	bcf	3999,1,c	;volatile
   448                           
   449                           ;user.c: 59: PIE1bits.TMR2IE = 1;
   450  001194  829D               	bsf	3997,1,c	;volatile
   451                           
   452                           ;user.c: 63: RCONbits.IPEN = 1;
   453  001196  8ED0               	bsf	4048,7,c	;volatile
   454                           
   455                           ;user.c: 67: INTCONbits.GIEL = 1;
   456  001198  8CF2               	bsf	intcon,6,c	;volatile
   457                           
   458                           ;user.c: 68: INTCONbits.GIEH = 1;
   459  00119A  8EF2               	bsf	intcon,7,c	;volatile
   460                           
   461                           ;user.c: 72: T2CONbits.TMR2ON = 1;
   462  00119C  84CA               	bsf	4042,2,c	;volatile
   463  00119E  0012               	return	
   464  0011A0                     __end_of_InitApp:
   465                           	opt stack 0
   466                           pclatu	equ	0xFFB
   467                           pclath	equ	0xFFA
   468                           tblptru	equ	0xFF8
   469                           tblptrh	equ	0xFF7
   470                           tblptrl	equ	0xFF6
   471                           tablat	equ	0xFF5
   472                           prodh	equ	0xFF4
   473                           prodl	equ	0xFF3
   474                           intcon	equ	0xFF2
   475                           fsr0h	equ	0xFEA
   476                           fsr0l	equ	0xFE9
   477                           wreg	equ	0xFE8
   478                           fsr1h	equ	0xFE2
   479                           fsr1l	equ	0xFE1
   480                           bsr	equ	0xFE0
   481                           fsr2h	equ	0xFDA
   482                           fsr2l	equ	0xFD9
   483                           status	equ	0xFD8
   484                           
   485 ;; *************** function _ConfigureOscillator *****************
   486 ;; Defined at:
   487 ;;		line 25 in file "system.c"
   488 ;; Parameters:    Size  Location     Type
   489 ;;		None
   490 ;; Auto vars:     Size  Location     Type
   491 ;;		None
   492 ;; Return value:  Size  Location     Type
   493 ;;		None               void
   494 ;; Registers used:
   495 ;;		wreg
   496 ;; Tracked objects:
   497 ;;		On entry : 0/0
   498 ;;		On exit  : 0/0
   499 ;;		Unchanged: 0/0
   500 ;; Data sizes:     COMRAM   BANK0   BANK1   BANK2   BANK3   BANK4   BANK5   BANK6   BANK7   BANK8   BANK9  BANK10  BANK1
      +1  BANK12  BANK13  BANK14
   501 ;;      Params:         0       0       0       0       0       0       0       0       0       0       0       0       
      +0       0       0       0
   502 ;;      Locals:         0       0       0       0       0       0       0       0       0       0       0       0       
      +0       0       0       0
   503 ;;      Temps:          1       0       0       0       0       0       0       0       0       0       0       0       
      +0       0       0       0
   504 ;;      Totals:         1       0       0       0       0       0       0       0       0       0       0       0       
      +0       0       0       0
   505 ;;Total ram usage:        1 bytes
   506 ;; Hardware stack levels used:    1
   507 ;; Hardware stack levels required when called:    2
   508 ;; This function calls:
   509 ;;		Nothing
   510 ;; This function is called by:
   511 ;;		_main
   512 ;; This function uses a non-reentrant model
   513 ;;
   514                           
   515                           	psect	text2
   516  0011A0                     __ptext2:
   517                           	opt stack 0
   518  0011A0                     _ConfigureOscillator:
   519                           	opt stack 28
   520                           
   521                           ;system.c: 33: OSCTUNEbits.PLLEN = 1;
   522                           
   523                           ;incstack = 0
   524                           ;incstack = 0
   525  0011A0  8C9B               	bsf	3995,6,c	;volatile
   526                           
   527                           ;system.c: 34: _delay((unsigned long)((20)*(48000000L/4/4000.0)));
   528  0011A2  0E4E               	movlw	78
   529  0011A4  6E20               	movwf	??_ConfigureOscillator& (0+255),c
   530  0011A6  0EEB               	movlw	235
   531  0011A8                     u77:
   532  0011A8  2EE8               	decfsz	wreg,f,c
   533  0011AA  D7FE               	goto	u77
   534  0011AC  2E20               	decfsz	??_ConfigureOscillator& (0+255),f,c
   535  0011AE  D7FC               	goto	u77
   536  0011B0  0012               	return	
   537  0011B2                     __end_of_ConfigureOscillator:
   538                           	opt stack 0
   539                           pclatu	equ	0xFFB
   540                           pclath	equ	0xFFA
   541                           tblptru	equ	0xFF8
   542                           tblptrh	equ	0xFF7
   543                           tblptrl	equ	0xFF6
   544                           tablat	equ	0xFF5
   545                           prodh	equ	0xFF4
   546                           prodl	equ	0xFF3
   547                           intcon	equ	0xFF2
   548                           fsr0h	equ	0xFEA
   549                           fsr0l	equ	0xFE9
   550                           wreg	equ	0xFE8
   551                           fsr1h	equ	0xFE2
   552                           fsr1l	equ	0xFE1
   553                           bsr	equ	0xFE0
   554                           fsr2h	equ	0xFDA
   555                           fsr2l	equ	0xFD9
   556                           status	equ	0xFD8
   557                           
   558 ;; *************** function _high_isr *****************
   559 ;; Defined at:
   560 ;;		line 36 in file "interrupts.c"
   561 ;; Parameters:    Size  Location     Type
   562 ;;		None
   563 ;; Auto vars:     Size  Location     Type
   564 ;;		None
   565 ;; Return value:  Size  Location     Type
   566 ;;		None               void
   567 ;; Registers used:
   568 ;;		None
   569 ;; Tracked objects:
   570 ;;		On entry : 0/0
   571 ;;		On exit  : 0/0
   572 ;;		Unchanged: 0/0
   573 ;; Data sizes:     COMRAM   BANK0   BANK1   BANK2   BANK3   BANK4   BANK5   BANK6   BANK7   BANK8   BANK9  BANK10  BANK1
      +1  BANK12  BANK13  BANK14
   574 ;;      Params:         0       0       0       0       0       0       0       0       0       0       0       0       
      +0       0       0       0
   575 ;;      Locals:         0       0       0       0       0       0       0       0       0       0       0       0       
      +0       0       0       0
   576 ;;      Temps:         14       0       0       0       0       0       0       0       0       0       0       0       
      +0       0       0       0
   577 ;;      Totals:        14       0       0       0       0       0       0       0       0       0       0       0       
      +0       0       0       0
   578 ;;Total ram usage:       14 bytes
   579 ;; Hardware stack levels used:    1
   580 ;; This function calls:
   581 ;;		Nothing
   582 ;; This function is called by:
   583 ;;		Interrupt level 2
   584 ;; This function uses a non-reentrant model
   585 ;;
   586                           
   587                           	psect	intcode
   588  001008                     __pintcode:
   589                           	opt stack 0
   590  001008                     _high_isr:
   591                           	opt stack 28
   592                           
   593                           ;incstack = 0
   594  001008  CFFA F012          	movff	pclath,??_high_isr
   595  00100C  CFFB F013          	movff	pclatu,??_high_isr+1
   596  001010  CFE9 F014          	movff	fsr0l,??_high_isr+2
   597  001014  EF53  F008         	goto	int_func
   598                           pclatu	equ	0xFFB
   599                           pclath	equ	0xFFA
   600                           tblptru	equ	0xFF8
   601                           tblptrh	equ	0xFF7
   602                           tblptrl	equ	0xFF6
   603                           tablat	equ	0xFF5
   604                           prodh	equ	0xFF4
   605                           prodl	equ	0xFF3
   606                           intcon	equ	0xFF2
   607                           fsr0h	equ	0xFEA
   608                           fsr0l	equ	0xFE9
   609                           wreg	equ	0xFE8
   610                           fsr1h	equ	0xFE2
   611                           fsr1l	equ	0xFE1
   612                           bsr	equ	0xFE0
   613                           fsr2h	equ	0xFDA
   614                           fsr2l	equ	0xFD9
   615                           status	equ	0xFD8
   616                           
   617                           	psect	intcode_body
   618  0010A6                     __pintcode_body:
   619                           	opt stack 28
   620  0010A6                     int_func:
   621                           	opt stack 28
   622  0010A6  CFEA F015          	movff	fsr0h,??_high_isr+3
   623  0010AA  CFE1 F016          	movff	fsr1l,??_high_isr+4
   624  0010AE  CFE2 F017          	movff	fsr1h,??_high_isr+5
   625  0010B2  CFD9 F018          	movff	fsr2l,??_high_isr+6
   626  0010B6  CFDA F019          	movff	fsr2h,??_high_isr+7
   627  0010BA  CFF3 F01A          	movff	prodl,??_high_isr+8
   628  0010BE  CFF4 F01B          	movff	prodh,??_high_isr+9
   629  0010C2  CFF6 F01C          	movff	tblptrl,??_high_isr+10
   630  0010C6  CFF7 F01D          	movff	tblptrh,??_high_isr+11
   631  0010CA  CFF8 F01E          	movff	tblptru,??_high_isr+12
   632  0010CE  CFF5 F01F          	movff	tablat,??_high_isr+13
   633  0010D2  C01F  FFF5         	movff	??_high_isr+13,tablat
   634  0010D6  C01E  FFF8         	movff	??_high_isr+12,tblptru
   635  0010DA  C01D  FFF7         	movff	??_high_isr+11,tblptrh
   636  0010DE  C01C  FFF6         	movff	??_high_isr+10,tblptrl
   637  0010E2  C01B  FFF4         	movff	??_high_isr+9,prodh
   638  0010E6  C01A  FFF3         	movff	??_high_isr+8,prodl
   639  0010EA  C019  FFDA         	movff	??_high_isr+7,fsr2h
   640  0010EE  C018  FFD9         	movff	??_high_isr+6,fsr2l
   641  0010F2  C017  FFE2         	movff	??_high_isr+5,fsr1h
   642  0010F6  C016  FFE1         	movff	??_high_isr+4,fsr1l
   643  0010FA  C015  FFEA         	movff	??_high_isr+3,fsr0h
   644  0010FE  C014  FFE9         	movff	??_high_isr+2,fsr0l
   645  001102  C013  FFFB         	movff	??_high_isr+1,pclatu
   646  001106  C012  FFFA         	movff	??_high_isr,pclath
   647  00110A  0011               	retfie		f
   648  00110C                     __end_of_high_isr:
   649                           	opt stack 0
   650  0000                     pclatu	equ	0xFFB
   651                           pclath	equ	0xFFA
   652                           tblptru	equ	0xFF8
   653                           tblptrh	equ	0xFF7
   654                           tblptrl	equ	0xFF6
   655                           tablat	equ	0xFF5
   656                           prodh	equ	0xFF4
   657                           prodl	equ	0xFF3
   658                           intcon	equ	0xFF2
   659                           fsr0h	equ	0xFEA
   660                           fsr0l	equ	0xFE9
   661                           wreg	equ	0xFE8
   662                           fsr1h	equ	0xFE2
   663                           fsr1l	equ	0xFE1
   664                           bsr	equ	0xFE0
   665                           fsr2h	equ	0xFDA
   666                           fsr2l	equ	0xFD9
   667                           status	equ	0xFD8
   668                           pclatu	equ	0xFFB
   669                           pclath	equ	0xFFA
   670                           tblptru	equ	0xFF8
   671                           tblptrh	equ	0xFF7
   672                           tblptrl	equ	0xFF6
   673                           tablat	equ	0xFF5
   674                           prodh	equ	0xFF4
   675                           prodl	equ	0xFF3
   676                           intcon	equ	0xFF2
   677                           fsr0h	equ	0xFEA
   678                           fsr0l	equ	0xFE9
   679                           wreg	equ	0xFE8
   680                           fsr1h	equ	0xFE2
   681                           fsr1l	equ	0xFE1
   682                           bsr	equ	0xFE0
   683                           fsr2h	equ	0xFDA
   684                           fsr2l	equ	0xFD9
   685                           status	equ	0xFD8
   686                           
   687                           	psect	rparam
   688  0000                     pclatu	equ	0xFFB
   689                           pclath	equ	0xFFA
   690                           tblptru	equ	0xFF8
   691                           tblptrh	equ	0xFF7
   692                           tblptrl	equ	0xFF6
   693                           tablat	equ	0xFF5
   694                           prodh	equ	0xFF4
   695                           prodl	equ	0xFF3
   696                           intcon	equ	0xFF2
   697                           fsr0h	equ	0xFEA
   698                           fsr0l	equ	0xFE9
   699                           wreg	equ	0xFE8
   700                           fsr1h	equ	0xFE2
   701                           fsr1l	equ	0xFE1
   702                           bsr	equ	0xFE0
   703                           fsr2h	equ	0xFDA
   704                           fsr2l	equ	0xFD9
   705                           status	equ	0xFD8


Data Sizes:
    Strings     0
    Constant    0
    Data        0
    BSS         0
    Persistent  0
    Stack       0

Auto Spaces:
    Space          Size  Autos    Used
    COMRAM           95     36      36
    BANK0           160      0       0
    BANK1           256      0       0
    BANK2           256      0       0
    BANK3           256      0       0
    BANK4           256      0       0
    BANK5           256      0       0
    BANK6           256      0       0
    BANK7           256      0       0
    BANK8           256      0       0
    BANK9           256      0       0
    BANK10          256      0       0
    BANK11          256      0       0
    BANK12          256      0       0
    BANK13          256      0       0
    BANK14          176      0       0

Pointer List with Targets:

    None.

Critical Paths under _main in COMRAM

    _main->_ConfigureOscillator

Critical Paths under _high_isr in COMRAM

    None.

Critical Paths under _main in BANK0

    None.

Critical Paths under _high_isr in BANK0

    None.

Critical Paths under _main in BANK1

    None.

Critical Paths under _high_isr in BANK1

    None.

Critical Paths under _main in BANK2

    None.

Critical Paths under _high_isr in BANK2

    None.

Critical Paths under _main in BANK3

    None.

Critical Paths under _high_isr in BANK3

    None.

Critical Paths under _main in BANK4

    None.

Critical Paths under _high_isr in BANK4

    None.

Critical Paths under _main in BANK5

    None.

Critical Paths under _high_isr in BANK5

    None.

Critical Paths under _main in BANK6

    None.

Critical Paths under _high_isr in BANK6

    None.

Critical Paths under _main in BANK7

    None.

Critical Paths under _high_isr in BANK7

    None.

Critical Paths under _main in BANK8

    None.

Critical Paths under _high_isr in BANK8

    None.

Critical Paths under _main in BANK9

    None.

Critical Paths under _high_isr in BANK9

    None.

Critical Paths under _main in BANK10

    None.

Critical Paths under _high_isr in BANK10

    None.

Critical Paths under _main in BANK11

    None.

Critical Paths under _high_isr in BANK11

    None.

Critical Paths under _main in BANK12

    None.

Critical Paths under _high_isr in BANK12

    None.

Critical Paths under _main in BANK13

    None.

Critical Paths under _high_isr in BANK13

    None.

Critical Paths under _main in BANK14

    None.

Critical Paths under _high_isr in BANK14

    None.

Call Graph Tables:

 ---------------------------------------------------------------------------------
 (Depth) Function   	        Calls       Base Space   Used Autos Params    Refs
 ---------------------------------------------------------------------------------
 (0) _main                                                 4     4      0      45
                                             32 COMRAM     4     4      0
                _ConfigureOscillator
                            _InitApp
 ---------------------------------------------------------------------------------
 (1) _InitApp                                              0     0      0       0
 ---------------------------------------------------------------------------------
 (1) _ConfigureOscillator                                  1     1      0       0
                                             31 COMRAM     1     1      0
 ---------------------------------------------------------------------------------
 Estimated maximum stack depth 1
 ---------------------------------------------------------------------------------
 (Depth) Function   	        Calls       Base Space   Used Autos Params    Refs
 ---------------------------------------------------------------------------------
 (2) _low_isr                                             17    17      0       0
                                              0 COMRAM    17    17      0
 ---------------------------------------------------------------------------------
 (3) _high_isr                                            14    14      0       0
                                             17 COMRAM    14    14      0
 ---------------------------------------------------------------------------------
 Estimated maximum stack depth 3
 ---------------------------------------------------------------------------------

 Call Graph Graphs:

 _main (ROOT)
   _ConfigureOscillator
   _InitApp

 _low_isr (ROOT)

 Address spaces:
Name               Size   Autos  Total    Cost      Usage
BITCOMRAM           5F      0       0       0        0.0%
NULL                 0      0       0       0        0.0%
CODE                 0      0       0       0        0.0%
COMRAM              5F     24      24       1       37.9%
STACK                0      0       1       2        0.0%
DATA                 0      0       0       3        0.0%
BITBANK0            A0      0       0       4        0.0%
BANK0               A0      0       0       5        0.0%
ABS                  0      0       0       6        0.0%
BITBANK1           100      0       0       7        0.0%
BANK1              100      0       0       8        0.0%
BITBANK2           100      0       0       9        0.0%
BANK2              100      0       0      10        0.0%
BITBANK3           100      0       0      11        0.0%
BANK3              100      0       0      12        0.0%
BITBANK4           100      0       0      13        0.0%
BANK4              100      0       0      14        0.0%
BITBANK5           100      0       0      15        0.0%
BANK5              100      0       0      16        0.0%
BITBANK6           100      0       0      17        0.0%
BANK6              100      0       0      18        0.0%
BITBANK7           100      0       0      19        0.0%
BANK7              100      0       0      20        0.0%
BITBANK8           100      0       0      21        0.0%
BANK8              100      0       0      22        0.0%
BITBANK9           100      0       0      23        0.0%
BANK9              100      0       0      24        0.0%
BITBANK10          100      0       0      25        0.0%
BANK10             100      0       0      26        0.0%
BITBANK11          100      0       0      27        0.0%
BANK11             100      0       0      28        0.0%
BITBANK12          100      0       0      29        0.0%
BANK12             100      0       0      30        0.0%
BITBANK13          100      0       0      31        0.0%
BANK13             100      0       0      32        0.0%
BITBANK14           B0      0       0      33        0.0%
BANK14              B0      0       0      34        0.0%
BIGRAM             EAF      0       0      35        0.0%
BITSFR_2             0      0       0      40        0.0%
SFR_2                0      0       0      40        0.0%
BITSFR_1             0      0       0      40        0.0%
SFR_1                0      0       0      40        0.0%
BITSFR               0      0       0      40        0.0%
SFR                  0      0       0      40        0.0%


Microchip Technology PIC18 Macro Assembler V1.20 build 52243 
Symbol Table                                                                                   Sun Sep 29 15:57:54 2013

                          l22 115A                            l17 114A                            l18 1144  
                          u77 11A8                            bsr 000FE0                  __CFG_CP0$OFF 000000  
                         l650 1124                           _PR2 000FCB                           i1l6 105C  
                         i2l3 10D2                           wreg 000FE8                          _LATA 000F89  
                        _LATB 000F8A                          _LATC 000F8B                          _LATD 000F8C  
                        _LATE 000F8D                          _main 110C                          fsr0h 000FEA  
                        fsr1h 000FE2                          fsr0l 000FE9                          fsr2h 000FDA  
                        fsr1l 000FE1                          fsr2l 000FD9                          pclat 000FFA  
                        prodh 000FF4                          prodl 000FF3                          start 10A2  
               __CFG_IESO$OFF 000000               __end_of_InitApp 11A0                 __CFG_PLLDIV$3 000000  
                       ?_main 0001                         _TRISA 000F92                         _TRISC 000F94  
                       _TRISD 000F95                         _TRISE 000F96           _ConfigureOscillator 11A0  
              __CFG_FCMEN$OFF 000000                __CFG_CLKOEC$ON 000000                         main@c 0022  
             __end_of_low_isr 10A2                         tablat 000FF5                         status 000FD8  
           __CFG_DSWDTPS$8192 000000          ?_ConfigureOscillator 0001       __CFG_DSWDTOSC$INTOSCREF 000000  
             __initialization 11B2                  __end_of_main 115E                __CFG_OSC$HSPLL 000000  
                      ??_main 0021                 __activetblptr 000000                __CFG_WDTEN$OFF 000000  
              __CFG_WPCFG$OFF 000000                     ??_InitApp 0020         ??_ConfigureOscillator 0020  
              __CFG_WPDIS$OFF 000000                __CFG_XINST$OFF 000000              __end_of_high_isr 110C  
              __CFG_STVREN$ON 000000                     ??_low_isr 0001                        tblptrh 000FF7  
                      tblptrl 000FF6                        tblptru 000FF8          __CFG_LS48MHZ$SYS48X8 000000  
                  __accesstop 0060       __end_of__initialization 11B2                __pcstackCOMRAM 0001  
                   ?_high_isr 0001                       _InitApp 115E                       __Hparam 0000  
                     __Lparam 0000                       __pcinit 11B2                       __ramtop 0F00  
                     __ptext0 110C                       __ptext1 115E                       __ptext2 11A0  
                   _T2CONbits 000FCA                       _low_isr 1018                    ??_high_isr 0012  
              __pintcode_body 10A6          end_of_initialization 11B2                       int_func 10A6  
                   _PORTDbits 000F83              __CFG_DSBOREN$OFF 000000              __CFG_CPUDIV$OSC1 000000  
           __CFG_SOSCSEL$HIGH 000000   __end_of_ConfigureOscillator 11B2              __CFG_IOL1WAY$OFF 000000  
           __CFG_WPEND$PAGE_0 000000           __CFG_MSSP7B_EN$MSK7 000000              __CFG_DSWDTEN$OFF 000000  
         start_initialization 11B2             __CFG_ADCSEL$BIT10 000000             __size_of_high_isr 0104  
                    ?_InitApp 0001                     __pintcode 1008                   __pintcodelo 1018  
        __CFG_RTCOSC$T1OSCREF 000000                      ?_low_isr 0001                      _IPR1bits 000F9F  
                    _PIE1bits 000F9D                      _RCONbits 000FD0              __CFG_WDTPS$32768 000000  
            __CFG_WPFP$PAGE_1 000000             __CFG_CFGPLLEN$OFF 000000              __size_of_InitApp 0042  
                    __Hrparam 0000                      __Lrparam 0000              __size_of_low_isr 008A  
                    _high_isr 1008                 __size_of_main 0052  __size_of_ConfigureOscillator 0012  
                 _OSCTUNEbits 000F9B                    _INTCONbits 000FF2               main@timer_delay 0023  
                    intlevel1 0000                      intlevel2 0000  
